target datalayout = "e-m:e-p270:32:32-p271:32:32-p272:64:64-i64:64-i128:128-f80:128-n8:16:32:64-S128"
target triple = "x86_64-pc-linux-gnu"

%struct.AVBPrint = type { ptr, i32, i32, i32, [1 x i8], [1000 x i8] }

; Function Attrs: nounwind uwtable
define ptr @avfilter_graph_dump(ptr noundef %0, ptr noundef %1) #0 {
  %3 = alloca ptr, align 8
  %4 = alloca ptr, align 8
  %5 = alloca ptr, align 8
  %6 = alloca %struct.AVBPrint, align 8
  %7 = alloca ptr, align 8
  %8 = alloca i32, align 4
  store ptr %0, ptr %4, align 8, !tbaa !4
  store ptr %1, ptr %5, align 8, !tbaa !9
  call void @llvm.lifetime.start.p0(i64 1024, ptr %6) #5
  call void @llvm.lifetime.start.p0(i64 8, ptr %7) #5
  store ptr null, ptr %7, align 8, !tbaa !9
  call void @av_bprint_init(ptr noundef %6, i32 noundef 0, i32 noundef 0)
  %9 = load ptr, ptr %4, align 8, !tbaa !4
  call void @avfilter_graph_dump_to_buf(ptr noundef %6, ptr noundef %9)
  %10 = getelementptr inbounds nuw %struct.AVBPrint, ptr %6, i32 0, i32 1
  %11 = load i32, ptr %10, align 8, !tbaa !11
  %12 = add i32 %11, 1
  %13 = zext i32 %12 to i64
  %14 = call noalias ptr @av_malloc(i64 noundef %13)
  store ptr %14, ptr %7, align 8, !tbaa !9
  %15 = load ptr, ptr %7, align 8, !tbaa !9
  %16 = icmp ne ptr %15, null
  br i1 %16, label %18, label %17

17:                                               ; preds = %2
  store ptr null, ptr %3, align 8
  store i32 1, ptr %8, align 4
  br label %25

18:                                               ; preds = %2
  %19 = load ptr, ptr %7, align 8, !tbaa !9
  %20 = getelementptr inbounds nuw %struct.AVBPrint, ptr %6, i32 0, i32 1
  %21 = load i32, ptr %20, align 8, !tbaa !11
  %22 = add i32 %21, 1
  call void @av_bprint_init_for_buffer(ptr noundef %6, ptr noundef %19, i32 noundef %22)
  %23 = load ptr, ptr %4, align 8, !tbaa !4
  call void @avfilter_graph_dump_to_buf(ptr noundef %6, ptr noundef %23)
  %24 = load ptr, ptr %7, align 8, !tbaa !9
  store ptr %24, ptr %3, align 8
  store i32 1, ptr %8, align 4
  br label %25

25:                                               ; preds = %18, %17
  call void @llvm.lifetime.end.p0(i64 8, ptr %7) #5
  call void @llvm.lifetime.end.p0(i64 1024, ptr %6) #5
  %26 = load ptr, ptr %3, align 8
  ret ptr %26
}