; Function Attrs: nounwind uwtable
define ptr @avfilter_graph_dump(ptr noundef readonly captures(none) %0, ptr noundef readnone captures(none) %1) local_unnamed_addr #0 {
  %3 = alloca %struct.AVBPrint, align 8
  call void @llvm.lifetime.start.p0(i64 1024, ptr nonnull %3) #5
  call void @av_bprint_init(ptr noundef nonnull %3, i32 noundef 0, i32 noundef 0) #5
  call fastcc void @avfilter_graph_dump_to_buf(ptr noundef %3, ptr noundef %0)
  %4 = getelementptr inbounds nuw i8, ptr %3, i64 8
  %5 = load i32, ptr %4, align 8, !tbaa !4
  %6 = add i32 %5, 1
  %7 = zext i32 %6 to i64
  %8 = call noalias ptr @av_malloc(i64 noundef %7) #5
  %.not = icmp eq ptr %8, null
  br i1 %.not, label %12, label %9

9:                                                ; preds = %2
  %10 = load i32, ptr %4, align 8, !tbaa !4
  %11 = add i32 %10, 1
  call void @av_bprint_init_for_buffer(ptr noundef nonnull %3, ptr noundef nonnull %8, i32 noundef %11) #5
  call fastcc void @avfilter_graph_dump_to_buf(ptr noundef %3, ptr noundef %0)
  br label %12

12:                                               ; preds = %2, %9
  call void @llvm.lifetime.end.p0(i64 1024, ptr nonnull %3) #5
  ret ptr %8
}